; Function Attrs: nounwind sspstrong uwtable
define hidden ptr @rb_iseq_get_yjit_payload(ptr noundef %0) local_unnamed_addr #0 {
  %2 = ptrtoint ptr %0 to i64
  %3 = icmp eq ptr %0, null
  %4 = and i64 %2, 7
  %5 = icmp ne i64 %4, 0
  %6 = or i1 %3, %5
  br i1 %6, label %imemo_type_p.exit.thread, label %imemo_type_p.exit, !prof !113

imemo_type_p.exit:                                ; preds = %1
  %7 = load i64, ptr %0, align 8, !tbaa !11
  %8 = and i64 %7, 61471
  %.not = icmp eq i64 %8, 28698
  br i1 %.not, label %9, label %imemo_type_p.exit.thread, !prof !114

imemo_type_p.exit.thread:                         ; preds = %1, %imemo_type_p.exit
  tail call void @rb_assert_failure(ptr noundef nonnull @.str.12, i32 noundef 409, ptr noundef nonnull @__func__.rb_iseq_get_yjit_payload, ptr noundef nonnull @.str.16) #24
  unreachable

9:                                                ; preds = %imemo_type_p.exit
  %10 = getelementptr inbounds nuw i8, ptr %0, i64 16
  %11 = load ptr, ptr %10, align 8, !tbaa !94
  %.not5 = icmp eq ptr %11, null
  br i1 %.not5, label %15, label %12

12:                                               ; preds = %9
  %13 = getelementptr inbounds nuw i8, ptr %11, i64 328
  %14 = load ptr, ptr %13, align 8, !tbaa !115
  br label %15

15:                                               ; preds = %9, %12
  %.0 = phi ptr [ %14, %12 ], [ null, %9 ]
  ret ptr %.0
}